target datalayout = "e-m:e-p270:32:32-p271:32:32-p272:64:64-i64:64-i128:128-f80:128-n8:16:32:64-S128"
target triple = "x86_64-pc-linux-gnu"

%struct.integerARG = type { i32, i64, i64 }

@.str = private unnamed_addr constant [6 x i8] c"%.*ld\00", align 1

; Function Attrs: inlinehint nounwind willreturn memory(read) uwtable
define available_externally i64 @atol(ptr noundef nonnull %0) #7 {
  %2 = alloca ptr, align 8
  store ptr %0, ptr %2, align 8, !tbaa !21
  %3 = load ptr, ptr %2, align 8, !tbaa !21
  %4 = call i64 @strtol(ptr noundef %3, ptr noundef null, i32 noundef 10) #8
  ret i64 %4
}

; Function Attrs: nounwind uwtable
define internal zeroext i1 @Check_Integer_Field(ptr noundef %0, ptr noundef %1) #0 {
  %3 = alloca i1, align 1
  %4 = alloca ptr, align 8
  %5 = alloca ptr, align 8
  %6 = alloca ptr, align 8
  %7 = alloca i64, align 8
  %8 = alloca i64, align 8
  %9 = alloca i32, align 4
  %10 = alloca ptr, align 8
  %11 = alloca ptr, align 8
  %12 = alloca i64, align 8
  %13 = alloca [100 x i8], align 16
  %14 = alloca i32, align 4
  store ptr %0, ptr %4, align 8, !tbaa !19
  store ptr %1, ptr %5, align 8, !tbaa !9
  call void @llvm.lifetime.start.p0(i64 8, ptr %6) #8
  %15 = load ptr, ptr %5, align 8, !tbaa !9
  store ptr %15, ptr %6, align 8, !tbaa !9
  call void @llvm.lifetime.start.p0(i64 8, ptr %7) #8
  %16 = load ptr, ptr %6, align 8, !tbaa !9
  %17 = getelementptr inbounds nuw %struct.integerARG, ptr %16, i32 0, i32 1
  %18 = load i64, ptr %17, align 8, !tbaa !16
  store i64 %18, ptr %7, align 8, !tbaa !15
  call void @llvm.lifetime.start.p0(i64 8, ptr %8) #8
  %19 = load ptr, ptr %6, align 8, !tbaa !9
  %20 = getelementptr inbounds nuw %struct.integerARG, ptr %19, i32 0, i32 2
  %21 = load i64, ptr %20, align 8, !tbaa !17
  store i64 %21, ptr %8, align 8, !tbaa !15
  call void @llvm.lifetime.start.p0(i64 4, ptr %9) #8
  %22 = load ptr, ptr %6, align 8, !tbaa !9
  %23 = getelementptr inbounds nuw %struct.integerARG, ptr %22, i32 0, i32 0
  %24 = load i32, ptr %23, align 8, !tbaa !12
  store i32 %24, ptr %9, align 4, !tbaa !10
  call void @llvm.lifetime.start.p0(i64 8, ptr %10) #8
  %25 = load ptr, ptr %4, align 8, !tbaa !19
  %26 = call ptr @field_buffer(ptr noundef %25, i32 noundef 0)
  store ptr %26, ptr %10, align 8, !tbaa !21
  call void @llvm.lifetime.start.p0(i64 8, ptr %11) #8
  %27 = load ptr, ptr %10, align 8, !tbaa !21
  store ptr %27, ptr %11, align 8, !tbaa !21
  call void @llvm.lifetime.start.p0(i64 8, ptr %12) #8
  call void @llvm.lifetime.start.p0(i64 100, ptr %13) #8
  br label %28

28:                                               ; preds = %40, %2
  %29 = load ptr, ptr %10, align 8, !tbaa !21
  %30 = load i8, ptr %29, align 1, !tbaa !23
  %31 = zext i8 %30 to i32
  %32 = icmp ne i32 %31, 0
  br i1 %32, label %33, label %38

33:                                               ; preds = %28
  %34 = load ptr, ptr %10, align 8, !tbaa !21
  %35 = load i8, ptr %34, align 1, !tbaa !23
  %36 = zext i8 %35 to i32
  %37 = icmp eq i32 %36, 32
  br label %38

38:                                               ; preds = %33, %28
  %39 = phi i1 [ false, %28 ], [ %37, %33 ]
  br i1 %39, label %40, label %43

40:                                               ; preds = %38
  %41 = load ptr, ptr %10, align 8, !tbaa !21
  %42 = getelementptr inbounds nuw i8, ptr %41, i32 1
  store ptr %42, ptr %10, align 8, !tbaa !21
  br label %28, !llvm.loop !24

43:                                               ; preds = %38
  %44 = load ptr, ptr %10, align 8, !tbaa !21
  %45 = load i8, ptr %44, align 1, !tbaa !23
  %46 = icmp ne i8 %45, 0
  br i1 %46, label %47, label %128

47:                                               ; preds = %43
  %48 = load ptr, ptr %10, align 8, !tbaa !21
  %49 = load i8, ptr %48, align 1, !tbaa !23
  %50 = zext i8 %49 to i32
  %51 = icmp eq i32 %50, 45
  br i1 %51, label %52, label %55

52:                                               ; preds = %47
  %53 = load ptr, ptr %10, align 8, !tbaa !21
  %54 = getelementptr inbounds nuw i8, ptr %53, i32 1
  store ptr %54, ptr %10, align 8, !tbaa !21
  br label %55

55:                                               ; preds = %52, %47
  br label %56

56:                                               ; preds = %73, %55
  %57 = load ptr, ptr %10, align 8, !tbaa !21
  %58 = load i8, ptr %57, align 1, !tbaa !23
  %59 = icmp ne i8 %58, 0
  br i1 %59, label %60, label %76

60:                                               ; preds = %56
  %61 = call ptr @__ctype_b_loc() #10
  %62 = load ptr, ptr %61, align 8, !tbaa !26
  %63 = load ptr, ptr %10, align 8, !tbaa !21
  %64 = load i8, ptr %63, align 1, !tbaa !23
  %65 = zext i8 %64 to i32
  %66 = sext i32 %65 to i64
  %67 = getelementptr inbounds i16, ptr %62, i64 %66
  %68 = load i16, ptr %67, align 2, !tbaa !28
  %69 = zext i16 %68 to i32
  %70 = and i32 %69, 2048
  %71 = icmp ne i32 %70, 0
  br i1 %71, label %73, label %72

72:                                               ; preds = %60
  br label %76

73:                                               ; preds = %60
  %74 = load ptr, ptr %10, align 8, !tbaa !21
  %75 = getelementptr inbounds nuw i8, ptr %74, i32 1
  store ptr %75, ptr %10, align 8, !tbaa !21
  br label %56, !llvm.loop !30

76:                                               ; preds = %72, %56
  br label %77

77:                                               ; preds = %89, %76
  %78 = load ptr, ptr %10, align 8, !tbaa !21
  %79 = load i8, ptr %78, align 1, !tbaa !23
  %80 = zext i8 %79 to i32
  %81 = icmp ne i32 %80, 0
  br i1 %81, label %82, label %87

82:                                               ; preds = %77
  %83 = load ptr, ptr %10, align 8, !tbaa !21
  %84 = load i8, ptr %83, align 1, !tbaa !23
  %85 = zext i8 %84 to i32
  %86 = icmp eq i32 %85, 32
  br label %87

87:                                               ; preds = %82, %77
  %88 = phi i1 [ false, %77 ], [ %86, %82 ]
  br i1 %88, label %89, label %92

89:                                               ; preds = %87
  %90 = load ptr, ptr %10, align 8, !tbaa !21
  %91 = getelementptr inbounds nuw i8, ptr %90, i32 1
  store ptr %91, ptr %10, align 8, !tbaa !21
  br label %77, !llvm.loop !31

92:                                               ; preds = %87
  %93 = load ptr, ptr %10, align 8, !tbaa !21
  %94 = load i8, ptr %93, align 1, !tbaa !23
  %95 = zext i8 %94 to i32
  %96 = icmp eq i32 %95, 0
  br i1 %96, label %97, label %127

97:                                               ; preds = %92
  %98 = load ptr, ptr %11, align 8, !tbaa !21
  %99 = call i64 @atol(ptr noundef %98) #11
  store i64 %99, ptr %12, align 8, !tbaa !15
  %100 = load i64, ptr %7, align 8, !tbaa !15
  %101 = load i64, ptr %8, align 8, !tbaa !15
  %102 = icmp slt i64 %100, %101
  br i1 %102, label %103, label %113

103:                                              ; preds = %97
  %104 = load i64, ptr %12, align 8, !tbaa !15
  %105 = load i64, ptr %7, align 8, !tbaa !15
  %106 = icmp slt i64 %104, %105
  br i1 %106, label %111, label %107

107:                                              ; preds = %103
  %108 = load i64, ptr %12, align 8, !tbaa !15
  %109 = load i64, ptr %8, align 8, !tbaa !15
  %110 = icmp sgt i64 %108, %109
  br i1 %110, label %111, label %112

111:                                              ; preds = %107, %103
  store i1 false, ptr %3, align 1
  store i32 1, ptr %14, align 4
  br label %129

112:                                              ; preds = %107
  br label %113

113:                                              ; preds = %112, %97
  %114 = getelementptr inbounds [100 x i8], ptr %13, i64 0, i64 0
  %115 = load i32, ptr %9, align 4, !tbaa !10
  %116 = icmp sgt i32 %115, 0
  br i1 %116, label %117, label %119

117:                                              ; preds = %113
  %118 = load i32, ptr %9, align 4, !tbaa !10
  br label %120

119:                                              ; preds = %113
  br label %120

120:                                              ; preds = %119, %117
  %121 = phi i32 [ %118, %117 ], [ 0, %119 ]
  %122 = load i64, ptr %12, align 8, !tbaa !15
  %123 = call i32 (ptr, i64, ptr, ...) @snprintf(ptr noundef %114, i64 noundef 100, ptr noundef @.str, i32 noundef %121, i64 noundef %122) #8
  %124 = load ptr, ptr %4, align 8, !tbaa !19
  %125 = getelementptr inbounds [100 x i8], ptr %13, i64 0, i64 0
  %126 = call i32 @set_field_buffer(ptr noundef %124, i32 noundef 0, ptr noundef %125)
  store i1 true, ptr %3, align 1
  store i32 1, ptr %14, align 4
  br label %129

127:                                              ; preds = %92
  br label %128

128:                                              ; preds = %127, %43
  store i1 false, ptr %3, align 1
  store i32 1, ptr %14, align 4
  br label %129

129:                                              ; preds = %128, %120, %111
  call void @llvm.lifetime.end.p0(i64 100, ptr %13) #8
  call void @llvm.lifetime.end.p0(i64 8, ptr %12) #8
  call void @llvm.lifetime.end.p0(i64 8, ptr %11) #8
  call void @llvm.lifetime.end.p0(i64 8, ptr %10) #8
  call void @llvm.lifetime.end.p0(i64 4, ptr %9) #8
  call void @llvm.lifetime.end.p0(i64 8, ptr %8) #8
  call void @llvm.lifetime.end.p0(i64 8, ptr %7) #8
  call void @llvm.lifetime.end.p0(i64 8, ptr %6) #8
  %130 = load i1, ptr %3, align 1
  ret i1 %130
}