; Function Attrs: nounwind uwtable
define internal noundef zeroext i1 @Check_Integer_Field(ptr noundef %0, ptr noundef readonly captures(none) %1) #2 {
  %3 = alloca [100 x i8], align 16
  %4 = getelementptr inbounds nuw i8, ptr %1, i64 8
  %5 = load i64, ptr %4, align 8, !tbaa !12
  %6 = getelementptr inbounds nuw i8, ptr %1, i64 16
  %7 = load i64, ptr %6, align 8, !tbaa !13
  %8 = load i32, ptr %1, align 8, !tbaa !8
  %9 = tail call ptr @field_buffer(ptr noundef %0, i32 noundef 0) #14
  call void @llvm.lifetime.start.p0(i64 100, ptr nonnull %3) #14
  br label %10

10:                                               ; preds = %12, %2
  %.032 = phi ptr [ %9, %2 ], [ %13, %12 ]
  %11 = load i8, ptr %.032, align 1, !tbaa !15
  switch i8 %11, label %.loopexit45 [
    i8 32, label %12
    i8 0, label %.loopexit
    i8 45, label %14
  ]

12:                                               ; preds = %10
  %13 = getelementptr inbounds nuw i8, ptr %.032, i64 1
  br label %10, !llvm.loop !16

14:                                               ; preds = %10
  %15 = getelementptr inbounds nuw i8, ptr %.032, i64 1
  %.pre = load i8, ptr %15, align 1, !tbaa !15
  br label %.loopexit45

.loopexit45:                                      ; preds = %10, %14
  %16 = phi i8 [ %.pre, %14 ], [ %11, %10 ]
  %.1 = phi ptr [ %15, %14 ], [ %.032, %10 ]
  %.not4149 = icmp eq i8 %16, 0
  br i1 %.not4149, label %._crit_edge.preheader, label %.lr.ph

.lr.ph:                                           ; preds = %.loopexit45
  %17 = tail call ptr @__ctype_b_loc() #15
  %18 = load ptr, ptr %17, align 8, !tbaa !18
  br label %19

19:                                               ; preds = %.lr.ph, %25
  %20 = phi i8 [ %16, %.lr.ph ], [ %27, %25 ]
  %.250 = phi ptr [ %.1, %.lr.ph ], [ %26, %25 ]
  %21 = zext i8 %20 to i64
  %22 = getelementptr inbounds nuw i16, ptr %18, i64 %21
  %23 = load i16, ptr %22, align 2, !tbaa !21
  %24 = and i16 %23, 2048
  %.not42 = icmp eq i16 %24, 0
  br i1 %.not42, label %._crit_edge.preheader, label %25

25:                                               ; preds = %19
  %26 = getelementptr inbounds nuw i8, ptr %.250, i64 1
  %27 = load i8, ptr %26, align 1, !tbaa !15
  %.not41 = icmp eq i8 %27, 0
  br i1 %.not41, label %._crit_edge.preheader, label %19, !llvm.loop !23

._crit_edge.preheader:                            ; preds = %25, %19, %.loopexit45
  %.ph = phi i8 [ 0, %.loopexit45 ], [ 0, %25 ], [ %20, %19 ]
  %.3.ph = phi ptr [ %.1, %.loopexit45 ], [ %26, %25 ], [ %.250, %19 ]
  br label %._crit_edge

._crit_edge:                                      ; preds = %._crit_edge.preheader, %29
  %28 = phi i8 [ %.pre56, %29 ], [ %.ph, %._crit_edge.preheader ]
  %.3 = phi ptr [ %30, %29 ], [ %.3.ph, %._crit_edge.preheader ]
  switch i8 %28, label %.loopexit [
    i8 32, label %29
    i8 0, label %31
  ]

29:                                               ; preds = %._crit_edge
  %30 = getelementptr inbounds nuw i8, ptr %.3, i64 1
  %.pre56 = load i8, ptr %30, align 1, !tbaa !15
  br label %._crit_edge, !llvm.loop !24

31:                                               ; preds = %._crit_edge
  %32 = tail call i64 @strtol(ptr noundef nonnull captures(none) %9, ptr noundef null, i32 noundef 10) #14
  %33 = icmp slt i64 %5, %7
  br i1 %33, label %34, label %37

34:                                               ; preds = %31
  %35 = icmp slt i64 %32, %5
  %36 = icmp sgt i64 %32, %7
  %or.cond = select i1 %35, i1 true, i1 %36
  br i1 %or.cond, label %.loopexit, label %37

37:                                               ; preds = %34, %31
  %38 = tail call i32 @llvm.smax.i32(i32 %8, i32 0)
  %39 = call i32 (ptr, i64, ptr, ...) @snprintf(ptr noundef nonnull dereferenceable(1) %3, i64 noundef 100, ptr noundef nonnull @.str, i32 noundef %38, i64 noundef %32) #14
  %40 = call i32 @set_field_buffer(ptr noundef %0, i32 noundef 0, ptr noundef nonnull %3) #14
  br label %.loopexit

.loopexit:                                        ; preds = %10, %._crit_edge, %34, %37
  %.0 = phi i1 [ true, %37 ], [ false, %34 ], [ false, %._crit_edge ], [ false, %10 ]
  call void @llvm.lifetime.end.p0(i64 100, ptr nonnull %3) #14
  ret i1 %.0
}